target datalayout = "e-m:e-p270:32:32-p271:32:32-p272:64:64-i64:64-i128:128-f80:128-n8:16:32:64-S128"
target triple = "x86_64-pc-linux-gnu"

%struct.ULocaleData = type { i8, ptr, ptr }

@.str.14 = private unnamed_addr constant [21 x i8] c"localeDisplayPattern\00", align 1
@_ZZ30ulocdata_getLocaleSeparator_77E4sub0 = internal constant [4 x i16] [i16 123, i16 48, i16 125, i16 0], align 2
@_ZZ30ulocdata_getLocaleSeparator_77E4sub1 = internal constant [4 x i16] [i16 123, i16 49, i16 125, i16 0], align 2
@.str.16 = private unnamed_addr constant [10 x i8] c"separator\00", align 1

; Function Attrs: inlinehint mustprogress nounwind uwtable
define internal noundef signext i8 @_ZL9U_FAILURE10UErrorCode(i32 noundef %0) #2 {
  %2 = alloca i32, align 4
  store i32 %0, ptr %2, align 4, !tbaa !15
  %3 = load i32, ptr %2, align 4, !tbaa !15
  %4 = icmp sgt i32 %3, 0
  %5 = zext i1 %4 to i8
  ret i8 %5
}

; Function Attrs: mustprogress uwtable
define i32 @ulocdata_getLocaleSeparator_77(ptr noundef %0, ptr noundef %1, i32 noundef %2, ptr noundef %3) #1 {
  %5 = alloca i32, align 4
  %6 = alloca ptr, align 8
  %7 = alloca ptr, align 8
  %8 = alloca i32, align 4
  %9 = alloca ptr, align 8
  %10 = alloca ptr, align 8
  %11 = alloca i32, align 4
  %12 = alloca ptr, align 8
  %13 = alloca i32, align 4
  %14 = alloca ptr, align 8
  %15 = alloca ptr, align 8
  %16 = alloca i32, align 4
  store ptr %0, ptr %6, align 8, !tbaa !23
  store ptr %1, ptr %7, align 8, !tbaa !35
  store i32 %2, ptr %8, align 4, !tbaa !14
  store ptr %3, ptr %9, align 8, !tbaa !22
  call void @llvm.lifetime.start.p0(i64 8, ptr %10) #9
  call void @llvm.lifetime.start.p0(i64 4, ptr %11) #9
  store i32 0, ptr %11, align 4, !tbaa !14
  call void @llvm.lifetime.start.p0(i64 8, ptr %12) #9
  store ptr null, ptr %12, align 8, !tbaa !35
  call void @llvm.lifetime.start.p0(i64 4, ptr %13) #9
  store i32 0, ptr %13, align 4, !tbaa !15
  call void @llvm.lifetime.start.p0(i64 8, ptr %14) #9
  call void @llvm.lifetime.start.p0(i64 8, ptr %15) #9
  %17 = load ptr, ptr %9, align 8, !tbaa !22
  %18 = load i32, ptr %17, align 4, !tbaa !15
  %19 = call noundef signext i8 @_ZL9U_FAILURE10UErrorCode(i32 noundef %18)
  %20 = icmp ne i8 %19, 0
  br i1 %20, label %21, label %22

21:                                               ; preds = %4
  store i32 0, ptr %5, align 4
  store i32 1, ptr %16, align 4
  br label %123

22:                                               ; preds = %4
  %23 = load ptr, ptr %6, align 8, !tbaa !23
  %24 = getelementptr inbounds nuw %struct.ULocaleData, ptr %23, i32 0, i32 2
  %25 = load ptr, ptr %24, align 8, !tbaa !25
  %26 = icmp eq ptr %25, null
  br i1 %26, label %27, label %29

27:                                               ; preds = %22
  %28 = load ptr, ptr %9, align 8, !tbaa !22
  store i32 2, ptr %28, align 4, !tbaa !15
  store i32 0, ptr %5, align 4
  store i32 1, ptr %16, align 4
  br label %123

29:                                               ; preds = %22
  %30 = load ptr, ptr %6, align 8, !tbaa !23
  %31 = getelementptr inbounds nuw %struct.ULocaleData, ptr %30, i32 0, i32 2
  %32 = load ptr, ptr %31, align 8, !tbaa !25
  %33 = call ptr @ures_getByKey_77(ptr noundef %32, ptr noundef @.str.14, ptr noundef null, ptr noundef %13)
  store ptr %33, ptr %10, align 8, !tbaa !39
  %34 = load i32, ptr %13, align 4, !tbaa !15
  %35 = icmp eq i32 %34, -127
  br i1 %35, label %36, label %42

36:                                               ; preds = %29
  %37 = load ptr, ptr %6, align 8, !tbaa !23
  %38 = getelementptr inbounds nuw %struct.ULocaleData, ptr %37, i32 0, i32 0
  %39 = load i8, ptr %38, align 8, !tbaa !28
  %40 = icmp ne i8 %39, 0
  br i1 %40, label %41, label %42

41:                                               ; preds = %36
  store i32 2, ptr %13, align 4, !tbaa !15
  br label %42

42:                                               ; preds = %41, %36, %29
  %43 = load i32, ptr %13, align 4, !tbaa !15
  %44 = icmp ne i32 %43, 0
  br i1 %44, label %45, label %48

45:                                               ; preds = %42
  %46 = load i32, ptr %13, align 4, !tbaa !15
  %47 = load ptr, ptr %9, align 8, !tbaa !22
  store i32 %46, ptr %47, align 4, !tbaa !15
  br label %48

48:                                               ; preds = %45, %42
  %49 = load ptr, ptr %9, align 8, !tbaa !22
  %50 = load i32, ptr %49, align 4, !tbaa !15
  %51 = call noundef signext i8 @_ZL9U_FAILURE10UErrorCode(i32 noundef %50)
  %52 = icmp ne i8 %51, 0
  br i1 %52, label %53, label %55

53:                                               ; preds = %48
  %54 = load ptr, ptr %10, align 8, !tbaa !39
  call void @ures_close_77(ptr noundef %54)
  store i32 0, ptr %5, align 4
  store i32 1, ptr %16, align 4
  br label %123

55:                                               ; preds = %48
  %56 = load ptr, ptr %10, align 8, !tbaa !39
  %57 = call ptr @ures_getStringByKey_77(ptr noundef %56, ptr noundef @.str.16, ptr noundef %11, ptr noundef %13)
  store ptr %57, ptr %12, align 8, !tbaa !35
  %58 = load ptr, ptr %10, align 8, !tbaa !39
  call void @ures_close_77(ptr noundef %58)
  %59 = load i32, ptr %13, align 4, !tbaa !15
  %60 = icmp eq i32 %59, -127
  br i1 %60, label %61, label %67

61:                                               ; preds = %55
  %62 = load ptr, ptr %6, align 8, !tbaa !23
  %63 = getelementptr inbounds nuw %struct.ULocaleData, ptr %62, i32 0, i32 0
  %64 = load i8, ptr %63, align 8, !tbaa !28
  %65 = icmp ne i8 %64, 0
  br i1 %65, label %66, label %67

66:                                               ; preds = %61
  store i32 2, ptr %13, align 4, !tbaa !15
  br label %67

67:                                               ; preds = %66, %61, %55
  %68 = load i32, ptr %13, align 4, !tbaa !15
  %69 = icmp ne i32 %68, 0
  br i1 %69, label %70, label %73

70:                                               ; preds = %67
  %71 = load i32, ptr %13, align 4, !tbaa !15
  %72 = load ptr, ptr %9, align 8, !tbaa !22
  store i32 %71, ptr %72, align 4, !tbaa !15
  br label %73

73:                                               ; preds = %70, %67
  %74 = load ptr, ptr %9, align 8, !tbaa !22
  %75 = load i32, ptr %74, align 4, !tbaa !15
  %76 = call noundef signext i8 @_ZL9U_FAILURE10UErrorCode(i32 noundef %75)
  %77 = icmp ne i8 %76, 0
  br i1 %77, label %78, label %79

78:                                               ; preds = %73
  store i32 0, ptr %5, align 4
  store i32 1, ptr %16, align 4
  br label %123

79:                                               ; preds = %73
  %80 = load ptr, ptr %12, align 8, !tbaa !35
  %81 = call ptr @u_strstr_77(ptr noundef %80, ptr noundef @_ZZ30ulocdata_getLocaleSeparator_77E4sub0)
  store ptr %81, ptr %14, align 8, !tbaa !35
  %82 = load ptr, ptr %12, align 8, !tbaa !35
  %83 = call ptr @u_strstr_77(ptr noundef %82, ptr noundef @_ZZ30ulocdata_getLocaleSeparator_77E4sub1)
  store ptr %83, ptr %15, align 8, !tbaa !35
  %84 = load ptr, ptr %14, align 8, !tbaa !35
  %85 = icmp ne ptr %84, null
  br i1 %85, label %86, label %117

86:                                               ; preds = %79
  %87 = load ptr, ptr %15, align 8, !tbaa !35
  %88 = icmp ne ptr %87, null
  br i1 %88, label %89, label %117

89:                                               ; preds = %86
  %90 = load ptr, ptr %14, align 8, !tbaa !35
  %91 = load ptr, ptr %15, align 8, !tbaa !35
  %92 = icmp ule ptr %90, %91
  br i1 %92, label %93, label %117

93:                                               ; preds = %89
  %94 = load ptr, ptr %14, align 8, !tbaa !35
  %95 = getelementptr inbounds i16, ptr %94, i64 3
  store ptr %95, ptr %12, align 8, !tbaa !35
  %96 = load ptr, ptr %15, align 8, !tbaa !35
  %97 = load ptr, ptr %12, align 8, !tbaa !35
  %98 = ptrtoint ptr %96 to i64
  %99 = ptrtoint ptr %97 to i64
  %100 = sub i64 %98, %99
  %101 = sdiv exact i64 %100, 2
  %102 = trunc i64 %101 to i32
  store i32 %102, ptr %11, align 4, !tbaa !14
  %103 = load i32, ptr %11, align 4, !tbaa !14
  %104 = load i32, ptr %8, align 4, !tbaa !14
  %105 = icmp slt i32 %103, %104
  br i1 %105, label %106, label %116

106:                                              ; preds = %93
  %107 = load ptr, ptr %7, align 8, !tbaa !35
  %108 = load ptr, ptr %12, align 8, !tbaa !35
  %109 = load i32, ptr %11, align 4, !tbaa !14
  %110 = call ptr @u_strncpy_77(ptr noundef %107, ptr noundef %108, i32 noundef %109)
  %111 = load ptr, ptr %7, align 8, !tbaa !35
  %112 = load i32, ptr %11, align 4, !tbaa !14
  %113 = sext i32 %112 to i64
  %114 = getelementptr inbounds i16, ptr %111, i64 %113
  store i16 0, ptr %114, align 2, !tbaa !42
  %115 = load i32, ptr %11, align 4, !tbaa !14
  store i32 %115, ptr %5, align 4
  store i32 1, ptr %16, align 4
  br label %123

116:                                              ; preds = %93
  br label %117

117:                                              ; preds = %116, %89, %86, %79
  %118 = load ptr, ptr %7, align 8, !tbaa !35
  %119 = load ptr, ptr %12, align 8, !tbaa !35
  %120 = load i32, ptr %8, align 4, !tbaa !14
  %121 = call ptr @u_strncpy_77(ptr noundef %118, ptr noundef %119, i32 noundef %120)
  %122 = load i32, ptr %11, align 4, !tbaa !14
  store i32 %122, ptr %5, align 4
  store i32 1, ptr %16, align 4
  br label %123

123:                                              ; preds = %117, %106, %78, %53, %27, %21
  call void @llvm.lifetime.end.p0(i64 8, ptr %15) #9
  call void @llvm.lifetime.end.p0(i64 8, ptr %14) #9
  call void @llvm.lifetime.end.p0(i64 4, ptr %13) #9
  call void @llvm.lifetime.end.p0(i64 8, ptr %12) #9
  call void @llvm.lifetime.end.p0(i64 4, ptr %11) #9
  call void @llvm.lifetime.end.p0(i64 8, ptr %10) #9
  %124 = load i32, ptr %5, align 4
  ret i32 %124
}