; Function Attrs: mustprogress uwtable
define i32 @ulocdata_getLocaleSeparator_77(ptr noundef readonly captures(none) %0, ptr noundef %1, i32 noundef %2, ptr noundef captures(none) %3) local_unnamed_addr #1 {
  %5 = alloca i32, align 4
  %6 = alloca i32, align 4
  call void @llvm.lifetime.start.p0(i64 4, ptr nonnull %5) #13
  store i32 0, ptr %5, align 4, !tbaa !12
  call void @llvm.lifetime.start.p0(i64 4, ptr nonnull %6) #13
  store i32 0, ptr %6, align 4, !tbaa !13
  %7 = load i32, ptr %3, align 4, !tbaa !13
  %8 = icmp slt i32 %7, 1
  br i1 %8, label %9, label %56

9:                                                ; preds = %4
  %10 = getelementptr inbounds nuw i8, ptr %0, i64 16
  %11 = load ptr, ptr %10, align 8, !tbaa !15
  %12 = icmp eq ptr %11, null
  br i1 %12, label %13, label %14

13:                                               ; preds = %9
  store i32 2, ptr %3, align 4, !tbaa !13
  br label %56

14:                                               ; preds = %9
  %15 = call ptr @ures_getByKey_77(ptr noundef nonnull %11, ptr noundef nonnull @.str.14, ptr noundef null, ptr noundef nonnull %6)
  %16 = load i32, ptr %6, align 4, !tbaa !13
  switch i32 %16, label %.thread [
    i32 -127, label %17
    i32 0, label %._crit_edge
  ]

._crit_edge:                                      ; preds = %14
  %.pre = load i32, ptr %3, align 4, !tbaa !13
  br label %21

17:                                               ; preds = %14
  %18 = load i8, ptr %0, align 8, !tbaa !18
  %.not37 = icmp eq i8 %18, 0
  br i1 %.not37, label %.thread, label %19

19:                                               ; preds = %17
  store i32 2, ptr %6, align 4, !tbaa !13
  br label %.thread

.thread:                                          ; preds = %14, %17, %19
  %20 = phi i32 [ -127, %17 ], [ 2, %19 ], [ %16, %14 ]
  store i32 %20, ptr %3, align 4, !tbaa !13
  br label %21

21:                                               ; preds = %._crit_edge, %.thread
  %22 = phi i32 [ %.pre, %._crit_edge ], [ %20, %.thread ]
  %23 = icmp slt i32 %22, 1
  br i1 %23, label %25, label %24

24:                                               ; preds = %21
  call void @ures_close_77(ptr noundef %15)
  br label %56

25:                                               ; preds = %21
  %26 = call ptr @ures_getStringByKey_77(ptr noundef %15, ptr noundef nonnull @.str.16, ptr noundef nonnull %5, ptr noundef nonnull %6)
  call void @ures_close_77(ptr noundef %15)
  %27 = load i32, ptr %6, align 4, !tbaa !13
  switch i32 %27, label %.thread48 [
    i32 -127, label %28
    i32 0, label %._crit_edge52
  ]

._crit_edge52:                                    ; preds = %25
  %.pre53 = load i32, ptr %3, align 4, !tbaa !13
  br label %32

28:                                               ; preds = %25
  %29 = load i8, ptr %0, align 8, !tbaa !18
  %.not40 = icmp eq i8 %29, 0
  br i1 %.not40, label %.thread48, label %30

30:                                               ; preds = %28
  store i32 2, ptr %6, align 4, !tbaa !13
  br label %.thread48

.thread48:                                        ; preds = %25, %28, %30
  %31 = phi i32 [ -127, %28 ], [ 2, %30 ], [ %27, %25 ]
  store i32 %31, ptr %3, align 4, !tbaa !13
  br label %32

32:                                               ; preds = %._crit_edge52, %.thread48
  %33 = phi i32 [ %.pre53, %._crit_edge52 ], [ %31, %.thread48 ]
  %34 = icmp slt i32 %33, 1
  br i1 %34, label %35, label %56

35:                                               ; preds = %32
  %36 = call ptr @u_strstr_77(ptr noundef %26, ptr noundef nonnull @_ZZ30ulocdata_getLocaleSeparator_77E4sub0)
  %37 = call ptr @u_strstr_77(ptr noundef %26, ptr noundef nonnull @_ZZ30ulocdata_getLocaleSeparator_77E4sub1)
  %38 = icmp eq ptr %36, null
  %39 = icmp eq ptr %37, null
  %or.cond.not51 = select i1 %38, i1 true, i1 %39
  %.not43 = icmp ugt ptr %36, %37
  %or.cond44 = select i1 %or.cond.not51, i1 true, i1 %.not43
  br i1 %or.cond44, label %53, label %40

40:                                               ; preds = %35
  %41 = getelementptr inbounds nuw i8, ptr %36, i64 6
  %42 = ptrtoint ptr %37 to i64
  %43 = ptrtoint ptr %41 to i64
  %44 = sub i64 %42, %43
  %45 = lshr exact i64 %44, 1
  %46 = trunc i64 %45 to i32
  store i32 %46, ptr %5, align 4, !tbaa !12
  %47 = icmp sgt i32 %2, %46
  br i1 %47, label %48, label %53

48:                                               ; preds = %40
  %49 = call ptr @u_strncpy_77(ptr noundef %1, ptr noundef nonnull %41, i32 noundef %46)
  %50 = load i32, ptr %5, align 4, !tbaa !12
  %51 = sext i32 %50 to i64
  %52 = getelementptr inbounds i16, ptr %1, i64 %51
  store i16 0, ptr %52, align 2, !tbaa !21
  br label %56

53:                                               ; preds = %40, %35
  %.030 = phi ptr [ %41, %40 ], [ %26, %35 ]
  %54 = call ptr @u_strncpy_77(ptr noundef %1, ptr noundef %.030, i32 noundef %2)
  %55 = load i32, ptr %5, align 4, !tbaa !12
  br label %56

56:                                               ; preds = %32, %4, %53, %48, %24, %13
  %.0 = phi i32 [ 0, %13 ], [ 0, %24 ], [ %50, %48 ], [ %55, %53 ], [ 0, %4 ], [ 0, %32 ]
  call void @llvm.lifetime.end.p0(i64 4, ptr nonnull %6) #13
  call void @llvm.lifetime.end.p0(i64 4, ptr nonnull %5) #13
  ret i32 %.0
}